target datalayout = "e-m:e-p270:32:32-p271:32:32-p272:64:64-i64:64-i128:128-f80:128-n8:16:32:64-S128"
target triple = "x86_64-pc-linux-gnu"

%struct.functionsLibCtx = type { ptr, ptr, i64, ptr }

@curr_functions_lib_ctx = internal global ptr null, align 8
@engines = internal global ptr null, align 8
@engine_cache_memory = internal global i64 0, align 8

; Function Attrs: nounwind uwtable
define dso_local i64 @functionsMemoryEngine() #1 {
  %1 = alloca i64, align 8
  call void @llvm.lifetime.start.p0(i64 8, ptr %1) #11
  %2 = load ptr, ptr @engines, align 8, !tbaa !5
  %3 = call i64 @dictMemUsage(ptr noundef %2)
  store i64 %3, ptr %1, align 8, !tbaa !59
  %4 = load ptr, ptr @curr_functions_lib_ctx, align 8, !tbaa !38
  %5 = getelementptr inbounds nuw %struct.functionsLibCtx, ptr %4, i32 0, i32 1
  %6 = load ptr, ptr %5, align 8, !tbaa !40
  %7 = call i64 @dictMemUsage(ptr noundef %6)
  %8 = load i64, ptr %1, align 8, !tbaa !59
  %9 = add i64 %8, %7
  store i64 %9, ptr %1, align 8, !tbaa !59
  %10 = load i64, ptr %1, align 8, !tbaa !59
  %11 = add i64 %10, 32
  store i64 %11, ptr %1, align 8, !tbaa !59
  %12 = load ptr, ptr @curr_functions_lib_ctx, align 8, !tbaa !38
  %13 = getelementptr inbounds nuw %struct.functionsLibCtx, ptr %12, i32 0, i32 2
  %14 = load i64, ptr %13, align 8, !tbaa !53
  %15 = load i64, ptr %1, align 8, !tbaa !59
  %16 = add i64 %15, %14
  store i64 %16, ptr %1, align 8, !tbaa !59
  %17 = load i64, ptr @engine_cache_memory, align 8, !tbaa !59
  %18 = load i64, ptr %1, align 8, !tbaa !59
  %19 = add i64 %18, %17
  store i64 %19, ptr %1, align 8, !tbaa !59
  %20 = load i64, ptr %1, align 8, !tbaa !59
  call void @llvm.lifetime.end.p0(i64 8, ptr %1) #11
  ret i64 %20
}