; Function Attrs: nounwind uwtable
define dso_local i64 @functionsMemoryEngine() local_unnamed_addr #1 {
  %1 = load ptr, ptr @engines, align 8, !tbaa !42
  %2 = tail call i64 @dictMemUsage(ptr noundef %1) #12
  %3 = load ptr, ptr @curr_functions_lib_ctx, align 8, !tbaa !40
  %4 = getelementptr inbounds nuw i8, ptr %3, i64 8
  %5 = load ptr, ptr %4, align 8, !tbaa !33
  %6 = tail call i64 @dictMemUsage(ptr noundef %5) #12
  %7 = load ptr, ptr @curr_functions_lib_ctx, align 8, !tbaa !40
  %8 = getelementptr inbounds nuw i8, ptr %7, i64 16
  %9 = load i64, ptr %8, align 8, !tbaa !39
  %10 = load i64, ptr @engine_cache_memory, align 8, !tbaa !49
  %11 = add i64 %2, 32
  %12 = add i64 %11, %6
  %13 = add i64 %12, %9
  %14 = add i64 %13, %10
  ret i64 %14
}